target datalayout = "e-m:e-p270:32:32-p271:32:32-p272:64:64-i64:64-i128:128-f80:128-n8:16:32:64-S128"
target triple = "x86_64-unknown-linux-gnu"

%"class.hermes::Identifier" = type { ptr }
%"class.llvh::SMLoc" = type { ptr }
%"class.llvh::SMRange" = type { %"class.llvh::SMLoc", %"class.llvh::SMLoc" }
%"class.hermes::irgen::ESTreeIRGen" = type { ptr, %"class.hermes::IRBuilder", %"class.hermes::IRInstrument", ptr, ptr, ptr, ptr, %"class.hermes::ScopedHashTable", %"class.std::shared_ptr", %"class.hermes::Identifier", %"class.hermes::Identifier", %"class.hermes::Identifier", ptr, ptr, %"class.llvh::DenseMap.0" }
%"class.hermes::IRBuilder" = type { ptr, %"class.llvh::ilist_iterator", ptr, %"class.llvh::SMLoc", ptr }
%"class.llvh::ilist_iterator" = type { ptr }
%"class.hermes::IRInstrument" = type { i8 }
%"class.hermes::ScopedHashTable" = type { %"class.llvh::DenseMap", ptr }
%"class.llvh::DenseMap" = type <{ ptr, i32, i32, i32, [4 x i8] }>
%"class.std::shared_ptr" = type { %"class.std::__shared_ptr" }
%"class.std::__shared_ptr" = type { ptr, %"class.std::__shared_count" }
%"class.std::__shared_count" = type { ptr }
%"class.llvh::DenseMap.0" = type <{ ptr, i32, i32, i32, [4 x i8] }>
%"class.hermes::ESTree::Node" = type { %"class.llvh::ilist_node", i32, i32, %"class.llvh::SMRange", %"class.llvh::SMLoc" }
%"class.llvh::ilist_node" = type { %"class.llvh::ilist_node_impl" }
%"class.llvh::ilist_node_impl" = type { %"class.llvh::ilist_node_base" }
%"class.llvh::ilist_node_base" = type { ptr, ptr }
%"class.hermes::ESTree::YieldExpressionNode" = type <{ %"class.hermes::ESTree::Node", ptr, i8, [7 x i8] }>

; Function Attrs: mustprogress nounwind uwtable
define linkonce_odr hidden void @_ZN6hermes10IdentifierC2Ev(ptr noundef nonnull align 8 dereferenceable(8) %this) unnamed_addr #0 comdat align 2 {
entry:
  %this.addr = alloca ptr, align 8
  store ptr %this, ptr %this.addr, align 8
  %this1 = load ptr, ptr %this.addr, align 8
  %ptr_ = getelementptr inbounds %"class.hermes::Identifier", ptr %this1, i32 0, i32 0
  store ptr null, ptr %ptr_, align 8
  ret void
}

; Function Attrs: mustprogress nounwind uwtable
define hidden noundef ptr @_ZN6hermes5irgen11ESTreeIRGen12genYieldExprEPNS_6ESTree19YieldExpressionNodeE(ptr noundef nonnull align 8 dereferenceable(200) %this, ptr noundef %Y) #0 align 2 {
entry:
  %this.addr = alloca ptr, align 8
  %Y.addr = alloca ptr, align 8
  %value = alloca ptr, align 8
  %agg.tmp = alloca %"class.hermes::Identifier", align 8
  store ptr %this, ptr %this.addr, align 8
  store ptr %Y, ptr %Y.addr, align 8
  %this1 = load ptr, ptr %this.addr, align 8
  %0 = load ptr, ptr %Y.addr, align 8
  %_argument = getelementptr inbounds %"class.hermes::ESTree::YieldExpressionNode", ptr %0, i32 0, i32 1
  %1 = load ptr, ptr %_argument, align 8
  %tobool = icmp ne ptr %1, null
  br i1 %tobool, label %cond.true, label %cond.false

cond.true:                                        ; preds = %entry
  %2 = load ptr, ptr %Y.addr, align 8
  %_argument2 = getelementptr inbounds %"class.hermes::ESTree::YieldExpressionNode", ptr %2, i32 0, i32 1
  %3 = load ptr, ptr %_argument2, align 8
  call void @llvm.memset.p0.i64(ptr align 8 %agg.tmp, i8 0, i64 8, i1 false)
  call void @_ZN6hermes10IdentifierC2Ev(ptr noundef nonnull align 8 dereferenceable(8) %agg.tmp) #9
  %coerce.dive = getelementptr inbounds %"class.hermes::Identifier", ptr %agg.tmp, i32 0, i32 0
  %4 = load ptr, ptr %coerce.dive, align 8
  %call = call noundef ptr @_ZN6hermes5irgen11ESTreeIRGen13genExpressionEPNS_6ESTree4NodeENS_10IdentifierE(ptr noundef nonnull align 8 dereferenceable(200) %this1, ptr noundef %3, ptr %4)
  br label %cond.end

cond.false:                                       ; preds = %entry
  %Builder = getelementptr inbounds %"class.hermes::irgen::ESTreeIRGen", ptr %this1, i32 0, i32 1
  %call3 = call noundef ptr @_ZN6hermes9IRBuilder19getLiteralUndefinedEv(ptr noundef nonnull align 8 dereferenceable(40) %Builder)
  br label %cond.end

cond.end:                                         ; preds = %cond.false, %cond.true
  %cond = phi ptr [ %call, %cond.true ], [ %call3, %cond.false ]
  store ptr %cond, ptr %value, align 8
  %5 = load ptr, ptr %value, align 8
  %call4 = call noundef ptr @_ZN6hermes5irgen11ESTreeIRGen19genYieldOrAwaitExprEPNS_5ValueE(ptr noundef nonnull align 8 dereferenceable(200) %this1, ptr noundef %5)
  ret ptr %call4
}