; Function Attrs: mustprogress nounwind uwtable
define hidden noundef ptr @_ZN6hermes5irgen11ESTreeIRGen12genYieldExprEPNS_6ESTree19YieldExpressionNodeE(ptr noundef nonnull align 8 dereferenceable(200) %this, ptr nocapture noundef readonly %Y) local_unnamed_addr #0 align 2 {
entry:
  %_argument = getelementptr inbounds i8, ptr %Y, i64 48
  %0 = load ptr, ptr %_argument, align 8
  %tobool.not = icmp eq ptr %0, null
  br i1 %tobool.not, label %cond.false, label %cond.true

cond.true:                                        ; preds = %entry
  %call = tail call noundef ptr @_ZN6hermes5irgen11ESTreeIRGen13genExpressionEPNS_6ESTree4NodeENS_10IdentifierE(ptr noundef nonnull align 8 dereferenceable(200) %this, ptr noundef nonnull %0, ptr null)
  br label %cond.end

cond.false:                                       ; preds = %entry
  %Builder = getelementptr inbounds i8, ptr %this, i64 8
  %call3 = tail call noundef ptr @_ZN6hermes9IRBuilder19getLiteralUndefinedEv(ptr noundef nonnull align 8 dereferenceable(40) %Builder) #16
  br label %cond.end

cond.end:                                         ; preds = %cond.false, %cond.true
  %cond = phi ptr [ %call, %cond.true ], [ %call3, %cond.false ]
  %call4 = tail call noundef ptr @_ZN6hermes5irgen11ESTreeIRGen19genYieldOrAwaitExprEPNS_5ValueE(ptr noundef nonnull align 8 dereferenceable(200) %this, ptr noundef %cond)
  ret ptr %call4
}